target datalayout = "e-m:e-p270:32:32-p271:32:32-p272:64:64-i64:64-i128:128-f80:128-n8:16:32:64-S128"
target triple = "x86_64-pc-linux-gnu"

%struct.uv_handle_s = type { ptr, ptr, i32, ptr, %struct.uv__queue, %union.anon.0, ptr, i32 }
%struct.uv__queue = type { ptr, ptr }
%union.anon.0 = type { [4 x ptr] }
%struct.uv__io_s = type { ptr, %struct.uv__queue, %struct.uv__queue, i32, i32, i32 }
%struct.uv_stream_s = type { ptr, ptr, i32, ptr, %struct.uv__queue, %union.anon, ptr, i32, i64, ptr, ptr, ptr, ptr, %struct.uv__io_s, %struct.uv__queue, %struct.uv__queue, ptr, i32, i32, ptr }
%union.anon = type { [4 x ptr] }
%struct.msghdr = type { ptr, i32, ptr, i64, ptr, i64, i32 }
%union.uv__cmsg = type { %struct.cmsghdr, [240 x i8] }
%struct.cmsghdr = type { i64, i32, i32, [0 x i8] }
%struct.uv_udp_s = type { ptr, ptr, i32, ptr, %struct.uv__queue, %union.anon.6, ptr, i32, i64, i64, ptr, ptr, %struct.uv__io_s, %struct.uv__queue, %struct.uv__queue }
%union.anon.6 = type { [4 x ptr] }
%struct.iovec = type { ptr, i64 }

; Function Attrs: nounwind uwtable
define internal i64 @uv__writev(i32 noundef %0, ptr noundef %1, i64 noundef %2) #0 {
  %4 = alloca i64, align 8
  %5 = alloca i32, align 4
  %6 = alloca ptr, align 8
  %7 = alloca i64, align 8
  store i32 %0, ptr %5, align 4
  store ptr %1, ptr %6, align 8
  store i64 %2, ptr %7, align 8
  %8 = load i64, ptr %7, align 8
  %9 = icmp eq i64 %8, 1
  br i1 %9, label %10, label %19

10:                                               ; preds = %3
  %11 = load i32, ptr %5, align 4
  %12 = load ptr, ptr %6, align 8
  %13 = getelementptr inbounds nuw %struct.iovec, ptr %12, i32 0, i32 0
  %14 = load ptr, ptr %13, align 8
  %15 = load ptr, ptr %6, align 8
  %16 = getelementptr inbounds nuw %struct.iovec, ptr %15, i32 0, i32 1
  %17 = load i64, ptr %16, align 8
  %18 = call i64 @write(i32 noundef %11, ptr noundef %14, i64 noundef %17)
  store i64 %18, ptr %4, align 8
  br label %25

19:                                               ; preds = %3
  %20 = load i32, ptr %5, align 4
  %21 = load ptr, ptr %6, align 8
  %22 = load i64, ptr %7, align 8
  %23 = trunc i64 %22 to i32
  %24 = call i64 @writev(i32 noundef %20, ptr noundef %21, i32 noundef %23)
  store i64 %24, ptr %4, align 8
  br label %25

25:                                               ; preds = %19, %10
  %26 = load i64, ptr %4, align 8
  ret i64 %26
}

; Function Attrs: nounwind uwtable
define internal i32 @uv__handle_fd(ptr noundef %0) #0 {
  %2 = alloca i32, align 4
  %3 = alloca ptr, align 8
  store ptr %0, ptr %3, align 8
  %4 = load ptr, ptr %3, align 8
  %5 = getelementptr inbounds nuw %struct.uv_handle_s, ptr %4, i32 0, i32 2
  %6 = load i32, ptr %5, align 8
  switch i32 %6, label %17 [
    i32 7, label %7
    i32 12, label %7
    i32 15, label %12
  ]

7:                                                ; preds = %1, %1
  %8 = load ptr, ptr %3, align 8
  %9 = getelementptr inbounds nuw %struct.uv_stream_s, ptr %8, i32 0, i32 13
  %10 = getelementptr inbounds nuw %struct.uv__io_s, ptr %9, i32 0, i32 5
  %11 = load i32, ptr %10, align 8
  store i32 %11, ptr %2, align 4
  br label %18

12:                                               ; preds = %1
  %13 = load ptr, ptr %3, align 8
  %14 = getelementptr inbounds nuw %struct.uv_udp_s, ptr %13, i32 0, i32 12
  %15 = getelementptr inbounds nuw %struct.uv__io_s, ptr %14, i32 0, i32 5
  %16 = load i32, ptr %15, align 8
  store i32 %16, ptr %2, align 4
  br label %18

17:                                               ; preds = %1
  store i32 -1, ptr %2, align 4
  br label %18

18:                                               ; preds = %17, %12, %7
  %19 = load i32, ptr %2, align 4
  ret i32 %19
}

; Function Attrs: nounwind uwtable
define internal i32 @uv__try_write(ptr noundef %0, ptr noundef %1, i32 noundef %2, ptr noundef %3) #0 {
  %5 = alloca i32, align 4
  %6 = alloca ptr, align 8
  %7 = alloca ptr, align 8
  %8 = alloca i32, align 4
  %9 = alloca ptr, align 8
  %10 = alloca ptr, align 8
  %11 = alloca i32, align 4
  %12 = alloca i32, align 4
  %13 = alloca i64, align 8
  %14 = alloca i32, align 4
  %15 = alloca %struct.msghdr, align 8
  %16 = alloca %union.uv__cmsg, align 8
  %17 = alloca i32, align 4
  store ptr %0, ptr %6, align 8
  store ptr %1, ptr %7, align 8
  store i32 %2, ptr %8, align 4
  store ptr %3, ptr %9, align 8
  call void @llvm.lifetime.start.p0(i64 8, ptr %10) #8
  call void @llvm.lifetime.start.p0(i64 4, ptr %11) #8
  call void @llvm.lifetime.start.p0(i64 4, ptr %12) #8
  call void @llvm.lifetime.start.p0(i64 8, ptr %13) #8
  %18 = load ptr, ptr %7, align 8
  store ptr %18, ptr %10, align 8
  %19 = load i32, ptr %8, align 4
  store i32 %19, ptr %12, align 4
  %20 = call i32 @uv__getiovmax()
  store i32 %20, ptr %11, align 4
  %21 = load i32, ptr %12, align 4
  %22 = load i32, ptr %11, align 4
  %23 = icmp sgt i32 %21, %22
  br i1 %23, label %24, label %26

24:                                               ; preds = %4
  %25 = load i32, ptr %11, align 4
  store i32 %25, ptr %12, align 4
  br label %26

26:                                               ; preds = %24, %4
  %27 = load ptr, ptr %9, align 8
  %28 = icmp ne ptr %27, null
  br i1 %28, label %29, label %73

29:                                               ; preds = %26
  call void @llvm.lifetime.start.p0(i64 4, ptr %14) #8
  call void @llvm.lifetime.start.p0(i64 56, ptr %15) #8
  call void @llvm.lifetime.start.p0(i64 256, ptr %16) #8
  %30 = load ptr, ptr %9, align 8
  %31 = getelementptr inbounds nuw %struct.uv_stream_s, ptr %30, i32 0, i32 7
  %32 = load i32, ptr %31, align 8
  %33 = and i32 %32, 3
  %34 = icmp ne i32 %33, 0
  br i1 %34, label %35, label %36

35:                                               ; preds = %29
  store i32 -9, ptr %5, align 4
  store i32 1, ptr %17, align 4
  br label %70

36:                                               ; preds = %29
  %37 = load ptr, ptr %9, align 8
  %38 = call i32 @uv__handle_fd(ptr noundef %37)
  store i32 %38, ptr %14, align 4
  call void @llvm.memset.p0.i64(ptr align 8 %16, i8 0, i64 256, i1 false)
  %39 = getelementptr inbounds nuw %struct.msghdr, ptr %15, i32 0, i32 0
  store ptr null, ptr %39, align 8
  %40 = getelementptr inbounds nuw %struct.msghdr, ptr %15, i32 0, i32 1
  store i32 0, ptr %40, align 8
  %41 = load ptr, ptr %10, align 8
  %42 = getelementptr inbounds nuw %struct.msghdr, ptr %15, i32 0, i32 2
  store ptr %41, ptr %42, align 8
  %43 = load i32, ptr %12, align 4
  %44 = sext i32 %43 to i64
  %45 = getelementptr inbounds nuw %struct.msghdr, ptr %15, i32 0, i32 3
  store i64 %44, ptr %45, align 8
  %46 = getelementptr inbounds nuw %struct.msghdr, ptr %15, i32 0, i32 6
  store i32 0, ptr %46, align 8
  %47 = getelementptr inbounds nuw %struct.msghdr, ptr %15, i32 0, i32 4
  store ptr %16, ptr %47, align 8
  %48 = getelementptr inbounds nuw %struct.msghdr, ptr %15, i32 0, i32 5
  store i64 24, ptr %48, align 8
  %49 = getelementptr inbounds nuw %struct.cmsghdr, ptr %16, i32 0, i32 1
  store i32 1, ptr %49, align 8
  %50 = getelementptr inbounds nuw %struct.cmsghdr, ptr %16, i32 0, i32 2
  store i32 1, ptr %50, align 4
  %51 = getelementptr inbounds nuw %struct.cmsghdr, ptr %16, i32 0, i32 0
  store i64 20, ptr %51, align 8
  %52 = getelementptr inbounds nuw %struct.cmsghdr, ptr %16, i32 0, i32 3
  %53 = getelementptr inbounds [0 x i8], ptr %52, i64 0, i64 0
  call void @llvm.memcpy.p0.p0.i64(ptr align 8 %53, ptr align 4 %14, i64 4, i1 false)
  br label %54

54:                                               ; preds = %67, %36
  %55 = load ptr, ptr %6, align 8
  %56 = getelementptr inbounds nuw %struct.uv_stream_s, ptr %55, i32 0, i32 13
  %57 = getelementptr inbounds nuw %struct.uv__io_s, ptr %56, i32 0, i32 5
  %58 = load i32, ptr %57, align 8
  %59 = call i64 @sendmsg(i32 noundef %58, ptr noundef %15, i32 noundef 0)
  store i64 %59, ptr %13, align 8
  br label %60

60:                                               ; preds = %54
  %61 = load i64, ptr %13, align 8
  %62 = icmp eq i64 %61, -1
  br i1 %62, label %63, label %67

63:                                               ; preds = %60
  %64 = call ptr @__errno_location() #9
  %65 = load i32, ptr %64, align 4
  %66 = icmp eq i32 %65, 4
  br label %67

67:                                               ; preds = %63, %60
  %68 = phi i1 [ false, %60 ], [ %66, %63 ]
  br i1 %68, label %54, label %69

69:                                               ; preds = %67
  store i32 0, ptr %17, align 4
  br label %70

70:                                               ; preds = %69, %35
  call void @llvm.lifetime.end.p0(i64 256, ptr %16) #8
  call void @llvm.lifetime.end.p0(i64 56, ptr %15) #8
  call void @llvm.lifetime.end.p0(i64 4, ptr %14) #8
  %71 = load i32, ptr %17, align 4
  switch i32 %71, label %116 [
    i32 0, label %72
  ]

72:                                               ; preds = %70
  br label %93

73:                                               ; preds = %26
  br label %74

74:                                               ; preds = %90, %73
  %75 = load ptr, ptr %6, align 8
  %76 = getelementptr inbounds nuw %struct.uv_stream_s, ptr %75, i32 0, i32 13
  %77 = getelementptr inbounds nuw %struct.uv__io_s, ptr %76, i32 0, i32 5
  %78 = load i32, ptr %77, align 8
  %79 = load ptr, ptr %10, align 8
  %80 = load i32, ptr %12, align 4
  %81 = sext i32 %80 to i64
  %82 = call i64 @uv__writev(i32 noundef %78, ptr noundef %79, i64 noundef %81)
  store i64 %82, ptr %13, align 8
  br label %83

83:                                               ; preds = %74
  %84 = load i64, ptr %13, align 8
  %85 = icmp eq i64 %84, -1
  br i1 %85, label %86, label %90

86:                                               ; preds = %83
  %87 = call ptr @__errno_location() #9
  %88 = load i32, ptr %87, align 4
  %89 = icmp eq i32 %88, 4
  br label %90

90:                                               ; preds = %86, %83
  %91 = phi i1 [ false, %83 ], [ %89, %86 ]
  br i1 %91, label %74, label %92

92:                                               ; preds = %90
  br label %93

93:                                               ; preds = %92, %72
  %94 = load i64, ptr %13, align 8
  %95 = icmp sge i64 %94, 0
  br i1 %95, label %96, label %99

96:                                               ; preds = %93
  %97 = load i64, ptr %13, align 8
  %98 = trunc i64 %97 to i32
  store i32 %98, ptr %5, align 4
  store i32 1, ptr %17, align 4
  br label %116

99:                                               ; preds = %93
  %100 = call ptr @__errno_location() #9
  %101 = load i32, ptr %100, align 4
  %102 = icmp eq i32 %101, 11
  br i1 %102, label %111, label %103

103:                                              ; preds = %99
  %104 = call ptr @__errno_location() #9
  %105 = load i32, ptr %104, align 4
  %106 = icmp eq i32 %105, 11
  br i1 %106, label %111, label %107

107:                                              ; preds = %103
  %108 = call ptr @__errno_location() #9
  %109 = load i32, ptr %108, align 4
  %110 = icmp eq i32 %109, 105
  br i1 %110, label %111, label %112

111:                                              ; preds = %107, %103, %99
  store i32 -11, ptr %5, align 4
  store i32 1, ptr %17, align 4
  br label %116

112:                                              ; preds = %107
  %113 = call ptr @__errno_location() #9
  %114 = load i32, ptr %113, align 4
  %115 = sub nsw i32 0, %114
  store i32 %115, ptr %5, align 4
  store i32 1, ptr %17, align 4
  br label %116

116:                                              ; preds = %112, %111, %96, %70
  call void @llvm.lifetime.end.p0(i64 8, ptr %13) #8
  call void @llvm.lifetime.end.p0(i64 4, ptr %12) #8
  call void @llvm.lifetime.end.p0(i64 4, ptr %11) #8
  call void @llvm.lifetime.end.p0(i64 8, ptr %10) #8
  %117 = load i32, ptr %5, align 4
  ret i32 %117
}