; Function Attrs: nounwind uwtable
define internal fastcc i32 @uv__try_write(ptr noundef readonly captures(none) %0, ptr noundef %1, i32 noundef %2, ptr noundef readonly captures(address_is_null) %3) unnamed_addr #0 {
  %5 = alloca %struct.msghdr, align 8
  %6 = alloca %union.uv__cmsg, align 8
  %7 = tail call i32 @uv__getiovmax() #12
  %spec.select = tail call i32 @llvm.smin.i32(i32 %2, i32 %7)
  %.not = icmp eq ptr %3, null
  br i1 %.not, label %.preheader, label %20

.preheader:                                       ; preds = %4
  %8 = getelementptr inbounds nuw i8, ptr %0, i64 184
  %9 = icmp eq i32 %spec.select, 1
  %10 = getelementptr inbounds nuw i8, ptr %1, i64 8
  br i1 %9, label %uv__writev.exit.us, label %uv__writev.exit

uv__writev.exit.us:                               ; preds = %.preheader, %16
  %11 = load i32, ptr %8, align 8
  %12 = load ptr, ptr %1, align 8
  %13 = load i64, ptr %10, align 8
  %14 = tail call i64 @write(i32 noundef %11, ptr noundef %12, i64 noundef %13) #12
  %15 = icmp eq i64 %14, -1
  br i1 %15, label %16, label %.critedge2

16:                                               ; preds = %uv__writev.exit.us
  %17 = tail call ptr @__errno_location() #13
  %18 = load i32, ptr %17, align 4
  %19 = icmp eq i32 %18, 4
  br i1 %19, label %uv__writev.exit.us, label %.critedge2.thread

20:                                               ; preds = %4
  call void @llvm.lifetime.start.p0(i64 56, ptr nonnull %5) #12
  call void @llvm.lifetime.start.p0(i64 256, ptr nonnull %6) #12
  %21 = getelementptr inbounds nuw i8, ptr %3, i64 88
  %22 = load i32, ptr %21, align 8
  %23 = and i32 %22, 3
  %.not31 = icmp eq i32 %23, 0
  br i1 %.not31, label %24, label %.critedge.thread

.critedge.thread:                                 ; preds = %20
  call void @llvm.lifetime.end.p0(i64 256, ptr nonnull %6) #12
  call void @llvm.lifetime.end.p0(i64 56, ptr nonnull %5) #12
  br label %63

24:                                               ; preds = %20
  %25 = getelementptr inbounds nuw i8, ptr %3, i64 16
  %26 = load i32, ptr %25, align 8
  switch i32 %26, label %uv__handle_fd.exit [
    i32 7, label %.sink.split.i
    i32 12, label %.sink.split.i
    i32 15, label %27
  ]

27:                                               ; preds = %24
  br label %.sink.split.i

.sink.split.i:                                    ; preds = %27, %24, %24
  %.sink3.i = phi i64 [ 176, %27 ], [ 184, %24 ], [ 184, %24 ]
  %28 = getelementptr inbounds nuw i8, ptr %3, i64 %.sink3.i
  %29 = load i32, ptr %28, align 8
  br label %uv__handle_fd.exit

uv__handle_fd.exit:                               ; preds = %24, %.sink.split.i
  %.0.i = phi i32 [ -1, %24 ], [ %29, %.sink.split.i ]
  %30 = getelementptr inbounds nuw i8, ptr %6, i64 16
  call void @llvm.memset.p0.i64(ptr noundef nonnull align 8 dereferenceable(256) %30, i8 0, i64 240, i1 false)
  store ptr null, ptr %5, align 8
  %31 = getelementptr inbounds nuw i8, ptr %5, i64 8
  store i32 0, ptr %31, align 8
  %32 = getelementptr inbounds nuw i8, ptr %5, i64 16
  store ptr %1, ptr %32, align 8
  %33 = sext i32 %spec.select to i64
  %34 = getelementptr inbounds nuw i8, ptr %5, i64 24
  store i64 %33, ptr %34, align 8
  %35 = getelementptr inbounds nuw i8, ptr %5, i64 48
  store i32 0, ptr %35, align 8
  %36 = getelementptr inbounds nuw i8, ptr %5, i64 32
  store ptr %6, ptr %36, align 8
  %37 = getelementptr inbounds nuw i8, ptr %5, i64 40
  store i64 24, ptr %37, align 8
  %38 = getelementptr inbounds nuw i8, ptr %6, i64 8
  store i32 1, ptr %38, align 8
  %39 = getelementptr inbounds nuw i8, ptr %6, i64 12
  store i32 1, ptr %39, align 4
  store i64 20, ptr %6, align 8
  %40 = getelementptr inbounds nuw i8, ptr %6, i64 16
  store i32 %.0.i, ptr %40, align 8
  %41 = getelementptr inbounds nuw i8, ptr %0, i64 184
  br label %42

42:                                               ; preds = %46, %uv__handle_fd.exit
  %43 = load i32, ptr %41, align 8
  %44 = call i64 @sendmsg(i32 noundef %43, ptr noundef nonnull %5, i32 noundef 0) #12
  %45 = icmp eq i64 %44, -1
  br i1 %45, label %46, label %.critedge

46:                                               ; preds = %42
  %47 = tail call ptr @__errno_location() #13
  %48 = load i32, ptr %47, align 4
  %49 = icmp eq i32 %48, 4
  br i1 %49, label %42, label %.critedge

.critedge:                                        ; preds = %46, %42
  call void @llvm.lifetime.end.p0(i64 256, ptr nonnull %6) #12
  call void @llvm.lifetime.end.p0(i64 56, ptr nonnull %5) #12
  br label %.critedge2

uv__writev.exit:                                  ; preds = %.preheader, %53
  %50 = load i32, ptr %8, align 8
  %51 = tail call i64 @writev(i32 noundef %50, ptr noundef %1, i32 noundef %spec.select) #12
  %52 = icmp eq i64 %51, -1
  br i1 %52, label %53, label %.critedge2

53:                                               ; preds = %uv__writev.exit
  %54 = tail call ptr @__errno_location() #13
  %55 = load i32, ptr %54, align 4
  %56 = icmp eq i32 %55, 4
  br i1 %56, label %uv__writev.exit, label %.critedge2.thread

.critedge2:                                       ; preds = %uv__writev.exit, %uv__writev.exit.us, %.critedge
  %.123 = phi i64 [ %44, %.critedge ], [ %14, %uv__writev.exit.us ], [ %51, %uv__writev.exit ]
  %57 = icmp sgt i64 %.123, -1
  br i1 %57, label %58, label %.critedge2..critedge2.thread_crit_edge

.critedge2..critedge2.thread_crit_edge:           ; preds = %.critedge2
  %.pre = tail call ptr @__errno_location() #13
  %.pr = load i32, ptr %.pre, align 4
  br label %.critedge2.thread

58:                                               ; preds = %.critedge2
  %59 = trunc i64 %.123 to i32
  br label %63

.critedge2.thread:                                ; preds = %53, %16, %.critedge2..critedge2.thread_crit_edge
  %60 = phi i32 [ %.pr, %.critedge2..critedge2.thread_crit_edge ], [ %18, %16 ], [ %55, %53 ]
  switch i32 %60, label %61 [
    i32 11, label %63
    i32 105, label %63
  ]

61:                                               ; preds = %.critedge2.thread
  %62 = sub nsw i32 0, %60
  br label %63

63:                                               ; preds = %.critedge.thread, %.critedge2.thread, %.critedge2.thread, %61, %58
  %.1 = phi i32 [ %59, %58 ], [ %62, %61 ], [ -11, %.critedge2.thread ], [ -11, %.critedge2.thread ], [ -9, %.critedge.thread ]
  ret i32 %.1
}